target datalayout = "e-m:e-p270:32:32-p271:32:32-p272:64:64-i64:64-i128:128-f80:128-n8:16:32:64-S128"
target triple = "x86_64-pc-linux-gnu"

; Function Attrs: mustprogress nounwind uwtable
define ptr @u_rtrim(ptr noundef %0) #0 {
  %2 = alloca ptr, align 8
  %3 = alloca ptr, align 8
  store ptr %0, ptr %2, align 8, !tbaa !3
  call void @llvm.lifetime.start.p0(i64 8, ptr %3) #7
  %4 = load ptr, ptr %2, align 8, !tbaa !3
  %5 = call noundef ptr @strchr(ptr noundef %4, i32 noundef 0) #8
  store ptr %5, ptr %3, align 8, !tbaa !3
  br label %6

6:                                                ; preds = %38, %1
  %7 = load ptr, ptr %2, align 8, !tbaa !3
  %8 = load ptr, ptr %3, align 8, !tbaa !3
  %9 = icmp ult ptr %7, %8
  br i1 %9, label %10, label %36

10:                                               ; preds = %6
  %11 = load ptr, ptr %3, align 8, !tbaa !3
  %12 = getelementptr inbounds i8, ptr %11, i64 -1
  %13 = load i8, ptr %12, align 1, !tbaa !8
  %14 = sext i8 %13 to i32
  %15 = icmp eq i32 %14, 32
  br i1 %15, label %34, label %16

16:                                               ; preds = %10
  %17 = load ptr, ptr %3, align 8, !tbaa !3
  %18 = getelementptr inbounds i8, ptr %17, i64 -1
  %19 = load i8, ptr %18, align 1, !tbaa !8
  %20 = sext i8 %19 to i32
  %21 = icmp eq i32 %20, 9
  br i1 %21, label %34, label %22

22:                                               ; preds = %16
  %23 = load ptr, ptr %3, align 8, !tbaa !3
  %24 = getelementptr inbounds i8, ptr %23, i64 -1
  %25 = load i8, ptr %24, align 1, !tbaa !8
  %26 = sext i8 %25 to i32
  %27 = icmp eq i32 %26, 13
  br i1 %27, label %34, label %28

28:                                               ; preds = %22
  %29 = load ptr, ptr %3, align 8, !tbaa !3
  %30 = getelementptr inbounds i8, ptr %29, i64 -1
  %31 = load i8, ptr %30, align 1, !tbaa !8
  %32 = sext i8 %31 to i32
  %33 = icmp eq i32 %32, 10
  br label %34

34:                                               ; preds = %28, %22, %16, %10
  %35 = phi i1 [ true, %22 ], [ true, %16 ], [ true, %10 ], [ %33, %28 ]
  br label %36

36:                                               ; preds = %34, %6
  %37 = phi i1 [ false, %6 ], [ %35, %34 ]
  br i1 %37, label %38, label %41

38:                                               ; preds = %36
  %39 = load ptr, ptr %3, align 8, !tbaa !3
  %40 = getelementptr inbounds i8, ptr %39, i32 -1
  store ptr %40, ptr %3, align 8, !tbaa !3
  store i8 0, ptr %40, align 1, !tbaa !8
  br label %6, !llvm.loop !11

41:                                               ; preds = %36
  %42 = load ptr, ptr %3, align 8, !tbaa !3
  call void @llvm.lifetime.end.p0(i64 8, ptr %3) #7
  ret ptr %42
}