; Function Attrs: mustprogress nofree nounwind memory(argmem: readwrite) uwtable
define ptr @u_rtrim(ptr noundef %0) local_unnamed_addr #1 {
  %strlen = tail call i64 @strlen(ptr nonnull dereferenceable(1) %0)
  %strchr = getelementptr inbounds i8, ptr %0, i64 %strlen
  %2 = icmp sgt i64 %strlen, 0
  br i1 %2, label %.lr.ph, label %.critedge

.lr.ph:                                           ; preds = %1, %.critedge2
  %.012 = phi ptr [ %3, %.critedge2 ], [ %strchr, %1 ]
  %3 = getelementptr inbounds i8, ptr %.012, i64 -1
  %4 = load i8, ptr %3, align 1, !tbaa !3
  switch i8 %4, label %.critedge [
    i8 32, label %.critedge2
    i8 9, label %.critedge2
    i8 13, label %.critedge2
    i8 10, label %.critedge2
  ]

.critedge2:                                       ; preds = %.lr.ph, %.lr.ph, %.lr.ph, %.lr.ph
  store i8 0, ptr %3, align 1, !tbaa !3
  %5 = icmp ult ptr %0, %3
  br i1 %5, label %.lr.ph, label %.critedge, !llvm.loop !8

.critedge:                                        ; preds = %.critedge2, %.lr.ph, %1
  %.0.lcssa = phi ptr [ %strchr, %1 ], [ %.012, %.lr.ph ], [ %3, %.critedge2 ]
  ret ptr %.0.lcssa
}